target datalayout = "e-m:e-p270:32:32-p271:32:32-p272:64:64-i64:64-i128:128-f80:128-n8:16:32:64-S128"
target triple = "x86_64-pc-linux-gnu"

@debug = external global ptr, align 8
@.str.58 = private unnamed_addr constant [59 x i8] c"Histogramming: ndata=%d, nhisto=%d, minx=%g,maxx=%g,dx=%g\0A\00", align 1

; Function Attrs: inlinehint mustprogress nounwind uwtable
define linkonce_odr noundef nonnull align 4 dereferenceable(4) ptr @_ZSt3maxIfERKT_S2_S2_(ptr noundef nonnull align 4 dereferenceable(4) %0, ptr noundef nonnull align 4 dereferenceable(4) %1) #10 comdat {
  %3 = alloca ptr, align 8
  %4 = alloca ptr, align 8
  %5 = alloca ptr, align 8
  store ptr %0, ptr %4, align 8, !tbaa !13
  store ptr %1, ptr %5, align 8, !tbaa !13
  %6 = load ptr, ptr %4, align 8, !tbaa !13
  %7 = load float, ptr %6, align 4, !tbaa !17
  %8 = load ptr, ptr %5, align 8, !tbaa !13
  %9 = load float, ptr %8, align 4, !tbaa !17
  %10 = fcmp olt float %7, %9
  br i1 %10, label %11, label %13

11:                                               ; preds = %2
  %12 = load ptr, ptr %5, align 8, !tbaa !13
  store ptr %12, ptr %3, align 8
  br label %15

13:                                               ; preds = %2
  %14 = load ptr, ptr %4, align 8, !tbaa !13
  store ptr %14, ptr %3, align 8
  br label %15

15:                                               ; preds = %13, %11
  %16 = load ptr, ptr %3, align 8
  ret ptr %16
}

; Function Attrs: inlinehint mustprogress nounwind uwtable
define linkonce_odr noundef nonnull align 4 dereferenceable(4) ptr @_ZSt3minIfERKT_S2_S2_(ptr noundef nonnull align 4 dereferenceable(4) %0, ptr noundef nonnull align 4 dereferenceable(4) %1) #10 comdat {
  %3 = alloca ptr, align 8
  %4 = alloca ptr, align 8
  %5 = alloca ptr, align 8
  store ptr %0, ptr %4, align 8, !tbaa !13
  store ptr %1, ptr %5, align 8, !tbaa !13
  %6 = load ptr, ptr %5, align 8, !tbaa !13
  %7 = load float, ptr %6, align 4, !tbaa !17
  %8 = load ptr, ptr %4, align 8, !tbaa !13
  %9 = load float, ptr %8, align 4, !tbaa !17
  %10 = fcmp olt float %7, %9
  br i1 %10, label %11, label %13

11:                                               ; preds = %2
  %12 = load ptr, ptr %5, align 8, !tbaa !13
  store ptr %12, ptr %3, align 8
  br label %15

13:                                               ; preds = %2
  %14 = load ptr, ptr %4, align 8, !tbaa !13
  store ptr %14, ptr %3, align 8
  br label %15

15:                                               ; preds = %13, %11
  %16 = load ptr, ptr %3, align 8
  ret ptr %16
}

; Function Attrs: mustprogress uwtable
define void @_Z10make_histoiPfiPiff(i32 noundef %0, ptr noundef %1, i32 noundef %2, ptr noundef %3, float noundef %4, float noundef %5) #0 {
  %7 = alloca i32, align 4
  %8 = alloca ptr, align 8
  %9 = alloca i32, align 4
  %10 = alloca ptr, align 8
  %11 = alloca float, align 4
  %12 = alloca float, align 4
  %13 = alloca double, align 8
  %14 = alloca i32, align 4
  %15 = alloca i32, align 4
  store i32 %0, ptr %7, align 4, !tbaa !11
  store ptr %1, ptr %8, align 8, !tbaa !13
  store i32 %2, ptr %9, align 4, !tbaa !11
  store ptr %3, ptr %10, align 8, !tbaa !80
  store float %4, ptr %11, align 4, !tbaa !17
  store float %5, ptr %12, align 4, !tbaa !17
  call void @llvm.lifetime.start.p0(i64 8, ptr %13) #17
  call void @llvm.lifetime.start.p0(i64 4, ptr %14) #17
  call void @llvm.lifetime.start.p0(i64 4, ptr %15) #17
  %16 = load float, ptr %11, align 4, !tbaa !17
  %17 = load float, ptr %12, align 4, !tbaa !17
  %18 = fcmp oeq float %16, %17
  br i1 %18, label %19, label %44

19:                                               ; preds = %6
  %20 = load ptr, ptr %8, align 8, !tbaa !13
  %21 = getelementptr inbounds float, ptr %20, i64 0
  %22 = load float, ptr %21, align 4, !tbaa !17
  store float %22, ptr %12, align 4, !tbaa !17
  store float %22, ptr %11, align 4, !tbaa !17
  store i32 1, ptr %14, align 4, !tbaa !11
  br label %23

23:                                               ; preds = %40, %19
  %24 = load i32, ptr %14, align 4, !tbaa !11
  %25 = load i32, ptr %7, align 4, !tbaa !11
  %26 = icmp slt i32 %24, %25
  br i1 %26, label %27, label %43

27:                                               ; preds = %23
  %28 = load ptr, ptr %8, align 8, !tbaa !13
  %29 = load i32, ptr %14, align 4, !tbaa !11
  %30 = sext i32 %29 to i64
  %31 = getelementptr inbounds float, ptr %28, i64 %30
  %32 = call noundef nonnull align 4 dereferenceable(4) ptr @_ZSt3minIfERKT_S2_S2_(ptr noundef nonnull align 4 dereferenceable(4) %11, ptr noundef nonnull align 4 dereferenceable(4) %31)
  %33 = load float, ptr %32, align 4, !tbaa !17
  store float %33, ptr %11, align 4, !tbaa !17
  %34 = load ptr, ptr %8, align 8, !tbaa !13
  %35 = load i32, ptr %14, align 4, !tbaa !11
  %36 = sext i32 %35 to i64
  %37 = getelementptr inbounds float, ptr %34, i64 %36
  %38 = call noundef nonnull align 4 dereferenceable(4) ptr @_ZSt3maxIfERKT_S2_S2_(ptr noundef nonnull align 4 dereferenceable(4) %12, ptr noundef nonnull align 4 dereferenceable(4) %37)
  %39 = load float, ptr %38, align 4, !tbaa !17
  store float %39, ptr %12, align 4, !tbaa !17
  br label %40

40:                                               ; preds = %27
  %41 = load i32, ptr %14, align 4, !tbaa !11
  %42 = add nsw i32 %41, 1
  store i32 %42, ptr %14, align 4, !tbaa !11
  br label %23, !llvm.loop !149

43:                                               ; preds = %23
  br label %44

44:                                               ; preds = %43, %6
  %45 = load i32, ptr %9, align 4, !tbaa !11
  %46 = sitofp i32 %45 to float
  %47 = load float, ptr %12, align 4, !tbaa !17
  %48 = load float, ptr %11, align 4, !tbaa !17
  %49 = fsub float %47, %48
  %50 = fdiv float %46, %49
  %51 = fpext float %50 to double
  store double %51, ptr %13, align 8, !tbaa !150
  %52 = load ptr, ptr @debug, align 8, !tbaa !15
  %53 = icmp ne ptr %52, null
  br i1 %53, label %54, label %64

54:                                               ; preds = %44
  %55 = load ptr, ptr @debug, align 8, !tbaa !15
  %56 = load i32, ptr %7, align 4, !tbaa !11
  %57 = load i32, ptr %9, align 4, !tbaa !11
  %58 = load float, ptr %11, align 4, !tbaa !17
  %59 = fpext float %58 to double
  %60 = load float, ptr %12, align 4, !tbaa !17
  %61 = fpext float %60 to double
  %62 = load double, ptr %13, align 8, !tbaa !150
  %63 = call i32 (ptr, ptr, ...) @fprintf(ptr noundef %55, ptr noundef @.str.58, i32 noundef %56, i32 noundef %57, double noundef %59, double noundef %61, double noundef %62) #17
  br label %64

64:                                               ; preds = %54, %44
  store i32 0, ptr %14, align 4, !tbaa !11
  br label %65

65:                                               ; preds = %95, %64
  %66 = load i32, ptr %14, align 4, !tbaa !11
  %67 = load i32, ptr %7, align 4, !tbaa !11
  %68 = icmp slt i32 %66, %67
  br i1 %68, label %69, label %98

69:                                               ; preds = %65
  %70 = load ptr, ptr %8, align 8, !tbaa !13
  %71 = load i32, ptr %14, align 4, !tbaa !11
  %72 = sext i32 %71 to i64
  %73 = getelementptr inbounds float, ptr %70, i64 %72
  %74 = load float, ptr %73, align 4, !tbaa !17
  %75 = load float, ptr %11, align 4, !tbaa !17
  %76 = fsub float %74, %75
  %77 = fpext float %76 to double
  %78 = load double, ptr %13, align 8, !tbaa !150
  %79 = fmul double %77, %78
  %80 = fptosi double %79 to i32
  store i32 %80, ptr %15, align 4, !tbaa !11
  %81 = load i32, ptr %15, align 4, !tbaa !11
  %82 = icmp sge i32 %81, 0
  br i1 %82, label %83, label %94

83:                                               ; preds = %69
  %84 = load i32, ptr %15, align 4, !tbaa !11
  %85 = load i32, ptr %9, align 4, !tbaa !11
  %86 = icmp slt i32 %84, %85
  br i1 %86, label %87, label %94

87:                                               ; preds = %83
  %88 = load ptr, ptr %10, align 8, !tbaa !80
  %89 = load i32, ptr %15, align 4, !tbaa !11
  %90 = sext i32 %89 to i64
  %91 = getelementptr inbounds i32, ptr %88, i64 %90
  %92 = load i32, ptr %91, align 4, !tbaa !11
  %93 = add nsw i32 %92, 1
  store i32 %93, ptr %91, align 4, !tbaa !11
  br label %94

94:                                               ; preds = %87, %83, %69
  br label %95

95:                                               ; preds = %94
  %96 = load i32, ptr %14, align 4, !tbaa !11
  %97 = add nsw i32 %96, 1
  store i32 %97, ptr %14, align 4, !tbaa !11
  br label %65, !llvm.loop !152

98:                                               ; preds = %65
  call void @llvm.lifetime.end.p0(i64 4, ptr %15) #17
  call void @llvm.lifetime.end.p0(i64 4, ptr %14) #17
  call void @llvm.lifetime.end.p0(i64 8, ptr %13) #17
  ret void
}