; Function Attrs: mustprogress nofree nounwind uwtable
define void @_Z10make_histoiPfiPiff(i32 noundef %0, ptr noundef readonly captures(none) %1, i32 noundef %2, ptr noundef captures(none) %3, float noundef %4, float noundef %5) local_unnamed_addr #19 {
  %7 = fcmp oeq float %4, %5
  br i1 %7, label %8, label %.loopexit

8:                                                ; preds = %6
  %9 = load float, ptr %1, align 4, !tbaa !20
  %10 = icmp sgt i32 %0, 1
  br i1 %10, label %.lr.ph.preheader, label %.loopexit

.lr.ph.preheader:                                 ; preds = %8
  %wide.trip.count = zext nneg i32 %0 to i64
  br label %.lr.ph

.lr.ph:                                           ; preds = %.lr.ph.preheader, %.lr.ph
  %indvars.iv = phi i64 [ 1, %.lr.ph.preheader ], [ %indvars.iv.next, %.lr.ph ]
  %.13337 = phi float [ %9, %.lr.ph.preheader ], [ %.sroa.speculated, %.lr.ph ]
  %.13536 = phi float [ %9, %.lr.ph.preheader ], [ %.sroa.speculated29, %.lr.ph ]
  %11 = getelementptr inbounds nuw float, ptr %1, i64 %indvars.iv
  %12 = load float, ptr %11, align 4, !tbaa !20
  %13 = fcmp olt float %12, %.13536
  %.sroa.speculated29 = select i1 %13, float %12, float %.13536
  %14 = fcmp olt float %.13337, %12
  %.sroa.speculated = select i1 %14, float %12, float %.13337
  %indvars.iv.next = add nuw nsw i64 %indvars.iv, 1
  %exitcond.not = icmp eq i64 %indvars.iv.next, %wide.trip.count
  br i1 %exitcond.not, label %.loopexit, label %.lr.ph, !llvm.loop !61

.loopexit:                                        ; preds = %.lr.ph, %8, %6
  %.034 = phi float [ %4, %6 ], [ %9, %8 ], [ %.sroa.speculated29, %.lr.ph ]
  %.032 = phi float [ %5, %6 ], [ %9, %8 ], [ %.sroa.speculated, %.lr.ph ]
  %15 = sitofp i32 %2 to float
  %16 = fsub float %.032, %.034
  %17 = fdiv float %15, %16
  %18 = fpext float %17 to double
  %19 = load ptr, ptr @debug, align 8, !tbaa !4
  %.not = icmp eq ptr %19, null
  br i1 %.not, label %24, label %20

20:                                               ; preds = %.loopexit
  %21 = fpext float %.034 to double
  %22 = fpext float %.032 to double
  %23 = tail call i32 (ptr, ptr, ...) @fprintf(ptr noundef nonnull %19, ptr noundef nonnull @.str.58, i32 noundef %0, i32 noundef %2, double noundef %21, double noundef %22, double noundef %18) #24
  br label %24

24:                                               ; preds = %20, %.loopexit
  %25 = icmp sgt i32 %0, 0
  br i1 %25, label %.lr.ph41.preheader, label %._crit_edge

.lr.ph41.preheader:                               ; preds = %24
  %wide.trip.count46 = zext nneg i32 %0 to i64
  br label %.lr.ph41

.lr.ph41:                                         ; preds = %.lr.ph41.preheader, %39
  %indvars.iv43 = phi i64 [ 0, %.lr.ph41.preheader ], [ %indvars.iv.next44, %39 ]
  %26 = getelementptr inbounds nuw float, ptr %1, i64 %indvars.iv43
  %27 = load float, ptr %26, align 4, !tbaa !20
  %28 = fsub float %27, %.034
  %29 = fpext float %28 to double
  %30 = fmul double %18, %29
  %31 = fptosi double %30 to i32
  %32 = icmp sgt i32 %31, -1
  %33 = icmp sgt i32 %2, %31
  %or.cond = and i1 %32, %33
  br i1 %or.cond, label %34, label %39

34:                                               ; preds = %.lr.ph41
  %35 = zext nneg i32 %31 to i64
  %36 = getelementptr inbounds nuw i32, ptr %3, i64 %35
  %37 = load i32, ptr %36, align 4, !tbaa !30
  %38 = add nsw i32 %37, 1
  store i32 %38, ptr %36, align 4, !tbaa !30
  br label %39

39:                                               ; preds = %.lr.ph41, %34
  %indvars.iv.next44 = add nuw nsw i64 %indvars.iv43, 1
  %exitcond47.not = icmp eq i64 %indvars.iv.next44, %wide.trip.count46
  br i1 %exitcond47.not, label %._crit_edge, label %.lr.ph41, !llvm.loop !62

._crit_edge:                                      ; preds = %39, %24
  ret void
}